target datalayout = "e-m:e-p270:32:32-p271:32:32-p272:64:64-i64:64-i128:128-f80:128-n8:16:32:64-S128"
target triple = "x86_64-pc-linux-gnu"

; Function Attrs: mustprogress uwtable
define linkonce_odr hidden noundef ptr @_ZNK6google8protobuf11MessageLite3NewEv(ptr noundef nonnull align 8 dereferenceable(16) %0) #5 comdat align 2 {
  %2 = alloca ptr, align 8
  store ptr %0, ptr %2, align 8, !tbaa !15
  %3 = load ptr, ptr %2, align 8
  %4 = load ptr, ptr %3, align 8, !tbaa !7
  %5 = getelementptr inbounds ptr, ptr %4, i64 3
  %6 = load ptr, ptr %5, align 8
  %7 = call noundef ptr %6(ptr noundef nonnull align 8 dereferenceable(16) %3, ptr noundef null)
  ret ptr %7
}

; Function Attrs: mustprogress uwtable
define hidden noundef ptr @_ZN6google8protobuf8internal26DuplicateIfNonNullInternalEPNS0_11MessageLiteE(ptr noundef %0) #5 {
  %2 = alloca ptr, align 8
  %3 = alloca ptr, align 8
  %4 = alloca ptr, align 8
  store ptr %0, ptr %3, align 8, !tbaa !15
  %5 = load ptr, ptr %3, align 8, !tbaa !15
  %6 = icmp ne ptr %5, null
  br i1 %6, label %7, label %16

7:                                                ; preds = %1
  call void @llvm.lifetime.start.p0(i64 8, ptr %4) #3
  %8 = load ptr, ptr %3, align 8, !tbaa !15
  %9 = call noundef ptr @_ZNK6google8protobuf11MessageLite3NewEv(ptr noundef nonnull align 8 dereferenceable(16) %8)
  store ptr %9, ptr %4, align 8, !tbaa !15
  %10 = load ptr, ptr %4, align 8, !tbaa !15
  %11 = load ptr, ptr %3, align 8, !tbaa !15
  %12 = load ptr, ptr %10, align 8, !tbaa !7
  %13 = getelementptr inbounds ptr, ptr %12, i64 7
  %14 = load ptr, ptr %13, align 8
  call void %14(ptr noundef nonnull align 8 dereferenceable(16) %10, ptr noundef nonnull align 8 dereferenceable(16) %11)
  %15 = load ptr, ptr %4, align 8, !tbaa !15
  store ptr %15, ptr %2, align 8
  call void @llvm.lifetime.end.p0(i64 8, ptr %4) #3
  br label %17

16:                                               ; preds = %1
  store ptr null, ptr %2, align 8
  br label %17

17:                                               ; preds = %16, %7
  %18 = load ptr, ptr %2, align 8
  ret ptr %18
}