; Function Attrs: mustprogress uwtable
define hidden noundef ptr @_ZN6google8protobuf8internal26DuplicateIfNonNullInternalEPNS0_11MessageLiteE(ptr noundef %0) local_unnamed_addr #4 {
  %.not = icmp eq ptr %0, null
  br i1 %.not, label %10, label %2

2:                                                ; preds = %1
  %3 = load ptr, ptr %0, align 8, !tbaa !3
  %4 = getelementptr inbounds nuw i8, ptr %3, i64 24
  %5 = load ptr, ptr %4, align 8
  %6 = tail call noundef ptr %5(ptr noundef nonnull align 8 dereferenceable(16) %0, ptr noundef null)
  %7 = load ptr, ptr %6, align 8, !tbaa !3
  %8 = getelementptr inbounds nuw i8, ptr %7, i64 56
  %9 = load ptr, ptr %8, align 8
  tail call void %9(ptr noundef nonnull align 8 dereferenceable(16) %6, ptr noundef nonnull align 8 dereferenceable(16) %0)
  br label %10

10:                                               ; preds = %1, %2
  %.0 = phi ptr [ %6, %2 ], [ null, %1 ]
  ret ptr %.0
}